; Function Attrs: mustprogress uwtable
define noundef zeroext i1 @_ZNK32pxrInternal_v0_24__pxrReserved__8Usd_Clip8HasFieldERKNS_7SdfPathERKNS_7TfTokenE(ptr noundef nonnull align 8 dereferenceable(208) %0, ptr noundef nonnull align 4 dereferenceable(8) %1, ptr noundef nonnull align 8 dereferenceable(8) %2) local_unnamed_addr #0 align 2 personality ptr @__gxx_personality_v0 {
  %4 = alloca %"class.pxrInternal_v0_24__pxrReserved__::TfCallContext", align 8
  %5 = alloca %"class.pxrInternal_v0_24__pxrReserved__::TfRefPtr.3", align 8
  %6 = alloca %"class.pxrInternal_v0_24__pxrReserved__::SdfPath", align 4
  call void @_ZNK32pxrInternal_v0_24__pxrReserved__8Usd_Clip16_GetLayerForClipEv(ptr dead_on_unwind nonnull writable sret(%"class.pxrInternal_v0_24__pxrReserved__::TfRefPtr.3") align 8 %5, ptr noundef nonnull align 8 dereferenceable(208) %0)
  call void @llvm.lifetime.start.p0(i64 40, ptr nonnull %4)
  %7 = load ptr, ptr %5, align 8
  %.not.i = icmp eq ptr %7, null
  br i1 %.not.i, label %8, label %13

8:                                                ; preds = %3
  store ptr @.str.18, ptr %4, align 8
  %9 = getelementptr inbounds nuw i8, ptr %4, i64 8
  store ptr @__func__._ZNK32pxrInternal_v0_24__pxrReserved__8TfRefPtrINS_8SdfLayerEEptEv, ptr %9, align 8
  %10 = getelementptr inbounds nuw i8, ptr %4, i64 16
  store i64 936, ptr %10, align 8
  %11 = getelementptr inbounds nuw i8, ptr %4, i64 24
  store ptr @__PRETTY_FUNCTION__._ZNK32pxrInternal_v0_24__pxrReserved__8TfRefPtrINS_8SdfLayerEEptEv, ptr %11, align 8
  %12 = getelementptr inbounds nuw i8, ptr %4, i64 32
  store i8 0, ptr %12, align 8
  invoke void @_ZN32pxrInternal_v0_24__pxrReserved__40Tf_PostNullSmartPtrDereferenceFatalErrorERKNS_13TfCallContextEPKc(ptr noundef nonnull align 8 dereferenceable(33) %4, ptr noundef nonnull @_ZTSN32pxrInternal_v0_24__pxrReserved__8TfRefPtrINS_8SdfLayerEEE) #17
          to label %.noexc unwind label %60

.noexc:                                           ; preds = %8
  unreachable

13:                                               ; preds = %3
  call void @llvm.lifetime.end.p0(i64 40, ptr nonnull %4)
  %14 = getelementptr inbounds nuw i8, ptr %0, i64 16
  %15 = getelementptr inbounds nuw i8, ptr %0, i64 104
  invoke void @_ZNK32pxrInternal_v0_24__pxrReserved__7SdfPath13ReplacePrefixERKS0_S2_b(ptr dead_on_unwind nonnull writable sret(%"class.pxrInternal_v0_24__pxrReserved__::SdfPath") align 4 %6, ptr noundef nonnull align 4 dereferenceable(8) %1, ptr noundef nonnull align 4 dereferenceable(8) %14, ptr noundef nonnull align 4 dereferenceable(8) %15, i1 noundef zeroext true)
          to label %_ZNK32pxrInternal_v0_24__pxrReserved__8Usd_Clip20_TranslatePathToClipERKNS_7SdfPathE.exit unwind label %60

_ZNK32pxrInternal_v0_24__pxrReserved__8Usd_Clip20_TranslatePathToClipERKNS_7SdfPathE.exit: ; preds = %13
  %16 = invoke noundef zeroext i1 @_ZNK32pxrInternal_v0_24__pxrReserved__8SdfLayer8HasFieldERKNS_7SdfPathERKNS_7TfTokenEPNS_7VtValueE(ptr noundef nonnull align 8 dereferenceable(557) %7, ptr noundef nonnull align 4 dereferenceable(8) %6, ptr noundef nonnull align 8 dereferenceable(8) %2, ptr noundef null)
          to label %17 unwind label %62

17:                                               ; preds = %_ZNK32pxrInternal_v0_24__pxrReserved__8Usd_Clip20_TranslatePathToClipERKNS_7SdfPathE.exit
  %18 = load i32, ptr %6, align 4
  %.not.i.i = icmp eq i32 %18, 0
  br i1 %.not.i.i, label %_ZN32pxrInternal_v0_24__pxrReserved__7SdfPathD2Ev.exit, label %19

19:                                               ; preds = %17
  %20 = and i32 %18, 255
  %21 = lshr i32 %18, 8
  %22 = zext nneg i32 %20 to i64
  %23 = getelementptr inbounds nuw [257 x ptr], ptr @_ZN32pxrInternal_v0_24__pxrReserved__8Sdf_PoolINS_15Sdf_PathPrimTagELj24ELj8ELj16384EE13_regionStartsE, i64 0, i64 %22
  %24 = load ptr, ptr %23, align 8
  %25 = mul nuw nsw i32 %21, 24
  %26 = zext nneg i32 %25 to i64
  %27 = getelementptr inbounds nuw i8, ptr %24, i64 %26
  %28 = getelementptr inbounds nuw i8, ptr %27, i64 8
  %29 = atomicrmw sub ptr %28, i32 1 seq_cst, align 4
  %30 = and i32 %29, 2147483647
  %31 = icmp eq i32 %30, 1
  br i1 %31, label %32, label %_ZN32pxrInternal_v0_24__pxrReserved__7SdfPathD2Ev.exit

32:                                               ; preds = %19
  invoke void @_ZNK32pxrInternal_v0_24__pxrReserved__12Sdf_PathNode8_DestroyEv(ptr noundef nonnull align 8 dereferenceable(16) %27)
          to label %_ZN32pxrInternal_v0_24__pxrReserved__7SdfPathD2Ev.exit unwind label %33

33:                                               ; preds = %32
  %34 = landingpad { ptr, i32 }
          catch ptr null
  %35 = extractvalue { ptr, i32 } %34, 0
  call void @__clang_call_terminate(ptr %35) #19
  unreachable

_ZN32pxrInternal_v0_24__pxrReserved__7SdfPathD2Ev.exit: ; preds = %17, %19, %32
  %36 = load ptr, ptr %5, align 8
  %.not.i.i.i = icmp eq ptr %36, null
  br i1 %.not.i.i.i, label %_ZN32pxrInternal_v0_24__pxrReserved__8TfRefPtrINS_8SdfLayerEED2Ev.exit, label %37

37:                                               ; preds = %_ZN32pxrInternal_v0_24__pxrReserved__7SdfPathD2Ev.exit
  %38 = getelementptr inbounds nuw i8, ptr %36, i64 8
  %39 = load atomic i32, ptr %38 monotonic, align 4
  %40 = icmp slt i32 %39, 0
  br i1 %40, label %41, label %_ZN32pxrInternal_v0_24__pxrReserved__30Tf_RefPtr_UniqueChangedCounter9RemoveRefEPKNS_9TfRefBaseE.exit.i.i

41:                                               ; preds = %37
  %.not68.i.i.i = icmp eq i32 %39, -2
  br i1 %.not68.i.i.i, label %49, label %42

42:                                               ; preds = %41
  %43 = add nsw i32 %39, 1
  %44 = cmpxchg weak ptr %38, i32 %39, i32 %43 release monotonic, align 4
  %45 = extractvalue { i32, i1 } %44, 1
  %46 = extractvalue { i32, i1 } %44, 0
  br i1 %45, label %47, label %49

47:                                               ; preds = %42
  %48 = icmp eq i32 %39, -1
  br i1 %48, label %53, label %_ZN32pxrInternal_v0_24__pxrReserved__8TfRefPtrINS_8SdfLayerEED2Ev.exit

49:                                               ; preds = %42, %41
  %.067.i.i.i = phi i32 [ %46, %42 ], [ -2, %41 ]
  %50 = invoke noundef zeroext i1 @_ZN32pxrInternal_v0_24__pxrReserved__30Tf_RefPtr_UniqueChangedCounter21_RemoveRefMaybeLockedEPKNS_9TfRefBaseEi(ptr noundef nonnull %36, i32 noundef %.067.i.i.i)
          to label %.noexc.i unwind label %57

.noexc.i:                                         ; preds = %49
  br i1 %50, label %53, label %_ZN32pxrInternal_v0_24__pxrReserved__8TfRefPtrINS_8SdfLayerEED2Ev.exit

_ZN32pxrInternal_v0_24__pxrReserved__30Tf_RefPtr_UniqueChangedCounter9RemoveRefEPKNS_9TfRefBaseE.exit.i.i: ; preds = %37
  %51 = atomicrmw sub ptr %38, i32 1 release, align 4
  %52 = icmp eq i32 %51, 1
  br i1 %52, label %53, label %_ZN32pxrInternal_v0_24__pxrReserved__8TfRefPtrINS_8SdfLayerEED2Ev.exit

53:                                               ; preds = %_ZN32pxrInternal_v0_24__pxrReserved__30Tf_RefPtr_UniqueChangedCounter9RemoveRefEPKNS_9TfRefBaseE.exit.i.i, %.noexc.i, %47
  %54 = load ptr, ptr %36, align 8
  %55 = getelementptr inbounds nuw i8, ptr %54, i64 8
  %56 = load ptr, ptr %55, align 8
  call void %56(ptr noundef nonnull align 8 dereferenceable(12) %36) #18
  br label %_ZN32pxrInternal_v0_24__pxrReserved__8TfRefPtrINS_8SdfLayerEED2Ev.exit

57:                                               ; preds = %49
  %58 = landingpad { ptr, i32 }
          catch ptr null
  %59 = extractvalue { ptr, i32 } %58, 0
  call void @__clang_call_terminate(ptr %59) #19
  unreachable

_ZN32pxrInternal_v0_24__pxrReserved__8TfRefPtrINS_8SdfLayerEED2Ev.exit: ; preds = %_ZN32pxrInternal_v0_24__pxrReserved__7SdfPathD2Ev.exit, %47, %.noexc.i, %_ZN32pxrInternal_v0_24__pxrReserved__30Tf_RefPtr_UniqueChangedCounter9RemoveRefEPKNS_9TfRefBaseE.exit.i.i, %53
  ret i1 %16

60:                                               ; preds = %13, %8
  %61 = landingpad { ptr, i32 }
          cleanup
  br label %64

62:                                               ; preds = %_ZNK32pxrInternal_v0_24__pxrReserved__8Usd_Clip20_TranslatePathToClipERKNS_7SdfPathE.exit
  %63 = landingpad { ptr, i32 }
          cleanup
  call void @_ZN32pxrInternal_v0_24__pxrReserved__7SdfPathD2Ev(ptr noundef nonnull align 4 dereferenceable(8) %6) #18
  br label %64

64:                                               ; preds = %62, %60
  %.pn = phi { ptr, i32 } [ %63, %62 ], [ %61, %60 ]
  call void @_ZN32pxrInternal_v0_24__pxrReserved__8TfRefPtrINS_8SdfLayerEED2Ev(ptr noundef nonnull align 8 dereferenceable(8) %5) #18
  resume { ptr, i32 } %.pn
}